; Function Attrs: nounwind uwtable
define range(i32 -1, 1) i32 @H5get_free_list_sizes(ptr noundef %0, ptr noundef %1, ptr noundef %2, ptr noundef %3) local_unnamed_addr #0 {
  %5 = load i8, ptr @H5_libinit_g, align 1
  %6 = trunc i8 %5 to i1
  %7 = load i8, ptr @H5_libterm_g, align 1
  %8 = trunc i8 %7 to i1
  %9 = select i1 %6, i1 true, i1 %8
  br i1 %9, label %17, label %10

10:                                               ; preds = %4
  %11 = tail call i32 @H5_init_library()
  %12 = icmp slt i32 %11, 0
  br i1 %12, label %13, label %17

13:                                               ; preds = %10
  %14 = load i64, ptr @H5E_FUNC_g, align 8
  %15 = load i64, ptr @H5E_CANTINIT_g, align 8
  %16 = tail call i32 (ptr, ptr, i32, i64, i64, ptr, ...) @H5E_printf_stack(ptr noundef nonnull @.str.30, ptr noundef nonnull @__func__.H5get_free_list_sizes, i32 noundef 652, i64 noundef %14, i64 noundef %15, ptr noundef nonnull @.str.66) #21
  br label %.thread19

17:                                               ; preds = %10, %4
  %18 = tail call i32 @H5CX_push() #21
  %19 = icmp slt i32 %18, 0
  br i1 %19, label %20, label %24

20:                                               ; preds = %17
  %21 = load i64, ptr @H5E_FUNC_g, align 8
  %22 = load i64, ptr @H5E_CANTSET_g, align 8
  %23 = tail call i32 (ptr, ptr, i32, i64, i64, ptr, ...) @H5E_printf_stack(ptr noundef nonnull @.str.30, ptr noundef nonnull @__func__.H5get_free_list_sizes, i32 noundef 652, i64 noundef %21, i64 noundef %22, ptr noundef nonnull @.str.67) #21
  br label %.thread19

24:                                               ; preds = %17
  %25 = tail call i32 @H5E_clear_stack() #21
  %26 = tail call i32 @H5FL_get_free_list_sizes(ptr noundef %0, ptr noundef %1, ptr noundef %2, ptr noundef %3) #21
  %27 = icmp slt i32 %26, 0
  br i1 %27, label %.thread24, label %32

.thread24:                                        ; preds = %24
  %28 = load i64, ptr @H5E_RESOURCE_g, align 8
  %29 = load i64, ptr @H5E_CANTGET_g, align 8
  %30 = tail call i32 (ptr, ptr, i32, i64, i64, ptr, ...) @H5E_printf_stack(ptr noundef nonnull @.str.30, ptr noundef nonnull @__func__.H5get_free_list_sizes, i32 noundef 656, i64 noundef %28, i64 noundef %29, ptr noundef nonnull @.str.70) #21
  %31 = tail call i32 @H5CX_pop(i1 noundef zeroext true) #21
  br label %.thread19

32:                                               ; preds = %24
  %33 = tail call i32 @H5CX_pop(i1 noundef zeroext true) #21
  br label %35

.thread19:                                        ; preds = %20, %13, %.thread24
  %34 = tail call i32 @H5E_dump_api_stack() #21
  br label %35

35:                                               ; preds = %32, %.thread19
  %.0101422 = phi i32 [ -1, %.thread19 ], [ 0, %32 ]
  ret i32 %.0101422
}